target datalayout = "e-m:e-p270:32:32-p271:32:32-p272:64:64-i64:64-i128:128-f80:128-n8:16:32:64-S128"
target triple = "x86_64-pc-linux-gnu"

%struct._object = type { %union.anon, ptr }
%union.anon = type { i64 }
%struct._abcmodule_state = type { ptr, i64 }
%struct.PyModuleObject = type { %struct._object, ptr, ptr, ptr, ptr, ptr }

@_abc_data_type_spec = internal global { ptr, i32, i32, i32, [4 x i8], ptr } { ptr @.str.25, i32 48, i32 0, i32 16384, [4 x i8] zeroinitializer, ptr @_abc_data_type_spec_slots }, align 8

; Function Attrs: inlinehint nounwind uwtable
define internal ptr @_PyModule_GetState(ptr noundef %0) #3 {
  %2 = alloca ptr, align 8
  store ptr %0, ptr %2, align 8, !tbaa !4
  %3 = load ptr, ptr %2, align 8, !tbaa !4
  %4 = getelementptr inbounds nuw %struct.PyModuleObject, ptr %3, i32 0, i32 3
  %5 = load ptr, ptr %4, align 8, !tbaa !28
  ret ptr %5
}

; Function Attrs: inlinehint nounwind uwtable
define internal ptr @get_abc_state(ptr noundef %0) #3 {
  %2 = alloca ptr, align 8
  %3 = alloca ptr, align 8
  store ptr %0, ptr %2, align 8, !tbaa !4
  call void @llvm.lifetime.start.p0(i64 8, ptr %3) #5
  %4 = load ptr, ptr %2, align 8, !tbaa !4
  %5 = call ptr @_PyModule_GetState(ptr noundef %4)
  store ptr %5, ptr %3, align 8, !tbaa !9
  %6 = load ptr, ptr %3, align 8, !tbaa !9
  call void @llvm.lifetime.end.p0(i64 8, ptr %3) #5
  ret ptr %6
}

; Function Attrs: nounwind uwtable
define internal i32 @_abcmodule_exec(ptr noundef %0) #0 {
  %2 = alloca i32, align 4
  %3 = alloca ptr, align 8
  %4 = alloca ptr, align 8
  %5 = alloca i32, align 4
  store ptr %0, ptr %3, align 8, !tbaa !4
  call void @llvm.lifetime.start.p0(i64 8, ptr %4) #5
  %6 = load ptr, ptr %3, align 8, !tbaa !4
  %7 = call ptr @get_abc_state(ptr noundef %6)
  store ptr %7, ptr %4, align 8, !tbaa !9
  %8 = load ptr, ptr %4, align 8, !tbaa !9
  %9 = getelementptr inbounds nuw %struct._abcmodule_state, ptr %8, i32 0, i32 1
  store i64 0, ptr %9, align 8, !tbaa !27
  %10 = load ptr, ptr %3, align 8, !tbaa !4
  %11 = call ptr @PyType_FromModuleAndSpec(ptr noundef %10, ptr noundef @_abc_data_type_spec, ptr noundef null)
  %12 = load ptr, ptr %4, align 8, !tbaa !9
  %13 = getelementptr inbounds nuw %struct._abcmodule_state, ptr %12, i32 0, i32 0
  store ptr %11, ptr %13, align 8, !tbaa !10
  %14 = load ptr, ptr %4, align 8, !tbaa !9
  %15 = getelementptr inbounds nuw %struct._abcmodule_state, ptr %14, i32 0, i32 0
  %16 = load ptr, ptr %15, align 8, !tbaa !10
  %17 = icmp eq ptr %16, null
  br i1 %17, label %18, label %19

18:                                               ; preds = %1
  store i32 -1, ptr %2, align 4
  store i32 1, ptr %5, align 4
  br label %20

19:                                               ; preds = %1
  store i32 0, ptr %2, align 4
  store i32 1, ptr %5, align 4
  br label %20

20:                                               ; preds = %19, %18
  call void @llvm.lifetime.end.p0(i64 8, ptr %4) #5
  %21 = load i32, ptr %2, align 4
  ret i32 %21
}