; Function Attrs: nounwind uwtable
define internal range(i32 -1, 1) i32 @_abcmodule_exec(ptr noundef %0) #0 {
  %2 = getelementptr i8, ptr %0, i64 32
  %.val = load ptr, ptr %2, align 8, !tbaa !4
  %3 = getelementptr inbounds nuw i8, ptr %.val, i64 8
  store i64 0, ptr %3, align 8, !tbaa !18
  %4 = tail call ptr @PyType_FromModuleAndSpec(ptr noundef %0, ptr noundef nonnull @_abc_data_type_spec, ptr noundef null) #4
  store ptr %4, ptr %.val, align 8, !tbaa !13
  %5 = icmp eq ptr %4, null
  %. = sext i1 %5 to i32
  ret i32 %.
}